; Function Attrs: uwtable
define void @_ZN9grpc_core20Chttp2PingRatePolicy8SentPingEv(ptr noundef nonnull align 8 captures(none) dereferenceable(24) initializes((16, 24)) %0) local_unnamed_addr #6 align 2 {
  %.not.i.i = icmp eq ptr @_ZTHN9grpc_core9Timestamp25thread_local_time_source_E, null
  br i1 %.not.i.i, label %_ZN9grpc_core9Timestamp3NowEv.exit, label %2

2:                                                ; preds = %1
  tail call void @_ZTHN9grpc_core9Timestamp25thread_local_time_source_E()
  br label %_ZN9grpc_core9Timestamp3NowEv.exit

_ZN9grpc_core9Timestamp3NowEv.exit:               ; preds = %1, %2
  %3 = tail call noundef align 8 ptr @llvm.threadlocal.address.p0(ptr align 8 @_ZN9grpc_core9Timestamp25thread_local_time_source_E)
  %4 = load ptr, ptr %3, align 8, !tbaa !19
  %5 = load ptr, ptr %4, align 8, !tbaa !22
  %6 = load ptr, ptr %5, align 8
  %7 = tail call i64 %6(ptr noundef nonnull align 8 dereferenceable(8) %4)
  %8 = getelementptr inbounds nuw i8, ptr %0, i64 16
  store i64 %7, ptr %8, align 8, !tbaa !18
  %9 = getelementptr inbounds nuw i8, ptr %0, i64 8
  %10 = load i32, ptr %9, align 8, !tbaa !16
  %11 = icmp sgt i32 %10, 0
  br i1 %11, label %12, label %14

12:                                               ; preds = %_ZN9grpc_core9Timestamp3NowEv.exit
  %13 = add nsw i32 %10, -1
  store i32 %13, ptr %9, align 8, !tbaa !16
  br label %14

14:                                               ; preds = %12, %_ZN9grpc_core9Timestamp3NowEv.exit
  ret void
}